; Function Attrs: mustprogress nofree norecurse nosync nounwind willreturn memory(readwrite, inaccessiblemem: none) uwtable
define range(i32 0, 4) i32 @ff_vvc_sao_eo_class_decode(ptr noundef readonly captures(none) %0) local_unnamed_addr #2 {
  %2 = getelementptr inbounds nuw i8, ptr %0, i64 4580560
  %3 = load ptr, ptr %2, align 16, !tbaa !67
  %4 = getelementptr inbounds nuw i8, ptr %3, i64 2672
  %5 = load i32, ptr %4, align 8, !tbaa !70
  %6 = shl nsw i32 %5, 1
  store i32 %6, ptr %4, align 8, !tbaa !70
  %7 = and i32 %5, 32767
  %.not.i = icmp eq i32 %7, 0
  br i1 %.not.i, label %8, label %refill.exit.i

8:                                                ; preds = %1
  %9 = getelementptr inbounds nuw i8, ptr %3, i64 2688
  %10 = load ptr, ptr %9, align 8, !tbaa !68
  %11 = load i8, ptr %10, align 1, !tbaa !97
  %12 = zext i8 %11 to i32
  %13 = shl nuw nsw i32 %12, 9
  %14 = getelementptr inbounds nuw i8, ptr %10, i64 1
  %15 = load i8, ptr %14, align 1, !tbaa !97
  %16 = zext i8 %15 to i32
  %17 = shl nuw nsw i32 %16, 1
  %18 = or disjoint i32 %17, %13
  %19 = add i32 %6, -65535
  %20 = add i32 %19, %18
  %21 = getelementptr inbounds nuw i8, ptr %3, i64 2696
  %22 = load ptr, ptr %21, align 8, !tbaa !71
  %23 = icmp ult ptr %10, %22
  br i1 %23, label %24, label %refill.exit.i

24:                                               ; preds = %8
  %25 = getelementptr inbounds nuw i8, ptr %10, i64 2
  store ptr %25, ptr %9, align 8, !tbaa !68
  br label %refill.exit.i

refill.exit.i:                                    ; preds = %24, %8, %1
  %26 = phi i32 [ %20, %24 ], [ %20, %8 ], [ %6, %1 ]
  %27 = getelementptr inbounds nuw i8, ptr %3, i64 2676
  %28 = load i32, ptr %27, align 4, !tbaa !100
  %29 = shl i32 %28, 17
  %30 = icmp slt i32 %26, %29
  %31 = select i1 %30, i32 0, i32 %29
  %spec.select = sub nsw i32 %26, %31
  %32 = shl nsw i32 %spec.select, 1
  store i32 %32, ptr %4, align 8, !tbaa !70
  %33 = and i32 %26, 32767
  %.not.i2 = icmp eq i32 %33, 0
  br i1 %.not.i2, label %34, label %refill.exit.i3

34:                                               ; preds = %refill.exit.i
  %35 = getelementptr inbounds nuw i8, ptr %3, i64 2688
  %36 = load ptr, ptr %35, align 8, !tbaa !68
  %37 = load i8, ptr %36, align 1, !tbaa !97
  %38 = zext i8 %37 to i32
  %39 = shl nuw nsw i32 %38, 9
  %40 = getelementptr inbounds nuw i8, ptr %36, i64 1
  %41 = load i8, ptr %40, align 1, !tbaa !97
  %42 = zext i8 %41 to i32
  %43 = shl nuw nsw i32 %42, 1
  %44 = or disjoint i32 %43, %39
  %45 = add i32 %32, -65535
  %46 = add i32 %45, %44
  store i32 %46, ptr %4, align 8, !tbaa !70
  %47 = getelementptr inbounds nuw i8, ptr %3, i64 2696
  %48 = load ptr, ptr %47, align 8, !tbaa !71
  %49 = icmp ult ptr %36, %48
  br i1 %49, label %50, label %refill.exit.i3

50:                                               ; preds = %34
  %51 = getelementptr inbounds nuw i8, ptr %36, i64 2
  store ptr %51, ptr %35, align 8, !tbaa !68
  br label %refill.exit.i3

refill.exit.i3:                                   ; preds = %50, %34, %refill.exit.i
  %52 = phi i32 [ %46, %50 ], [ %46, %34 ], [ %32, %refill.exit.i ]
  %53 = icmp slt i32 %52, %29
  br i1 %53, label %get_cabac_bypass.exit5, label %54

54:                                               ; preds = %refill.exit.i3
  %55 = sub nsw i32 %52, %29
  store i32 %55, ptr %4, align 8, !tbaa !70
  br label %get_cabac_bypass.exit5

get_cabac_bypass.exit5:                           ; preds = %refill.exit.i3, %54
  %.0.i4 = phi i32 [ 1, %54 ], [ 0, %refill.exit.i3 ]
  %spec.select6 = select i1 %30, i32 0, i32 2
  %56 = or disjoint i32 %.0.i4, %spec.select6
  ret i32 %56
}